target datalayout = "e-m:e-p270:32:32-p271:32:32-p272:64:64-i64:64-i128:128-f80:128-n8:16:32:64-S128"
target triple = "x86_64-pc-linux-gnu"

%struct.redisServer = type { i32, i64, ptr, ptr, ptr, i32, i32, i32, i32, i32, ptr, ptr, ptr, ptr, ptr, i32, i32, i32, i32, i64, i32, i32, i32, i32, ptr, i32, i32, [41 x i8], i32, i64, i32, i32, i32, ptr, ptr, i32, i32, i64, ptr, ptr, ptr, ptr, [2 x i32], i32, i32, i32, i32, i32, i32, [16 x ptr], i32, ptr, ptr, i32, [8 x %struct.connListener], i32, %struct.connListener, ptr, ptr, ptr, ptr, ptr, ptr, ptr, ptr, ptr, ptr, i32, ptr, i32, ptr, [3 x %struct.pause_event], [256 x i8], ptr, i64, i32, i32, [128 x i32], i32, i32, i64, i32, i32, i32, i32, i32, i64, i64, i64, i64, i64, i64, i64, i64, i64, i64, double, i64, i64, i64, i64, i64, i64, i64, i64, i64, i64, i64, i64, i64, i64, i64, i64, i64, i64, i64, i64, i64, double, i64, i64, i64, i64, i64, ptr, i64, i64, i64, %struct.malloc_stats, i64, i64, i64, i64, i64, i64, i64, i64, i64, i64, i64, i64, double, [4 x i64], i64, i64, i64, i64, [128 x i64], [128 x i64], i64, i64, [7 x %struct.anon], i64, i64, i64, i64, i64, i64, [4 x %struct.durationStats], i32, i32, i32, i32, i32, i32, i32, i32, i32, i32, i32, i32, i64, i32, i32, i32, i32, i64, i64, i32, i32, i32, i32, i32, ptr, [3 x %struct.clientBufferLimitsConfig], i32, i32, i32, ptr, i32, i32, i32, i32, i32, i32, ptr, ptr, i32, i32, i64, i64, i64, i64, i64, i32, i32, ptr, i32, i32, i64, i64, i64, i64, i64, i32, i32, i64, i32, i32, i32, i32, i32, i32, i32, i32, ptr, i32, i64, i64, i64, i64, i32, ptr, i32, ptr, i32, i32, i32, i64, i64, i64, i64, i32, i32, i32, i32, i32, i32, ptr, i32, i32, ptr, i32, i32, i32, [2 x i32], i32, %struct.redisOpArray, i32, ptr, i32, ptr, i32, i32, i32, i32, i32, i32, i32, [41 x i8], [41 x i8], i64, i64, i64, i64, i32, i32, ptr, i64, i64, %struct.replDataBuf, i64, i64, i32, i32, i32, i32, i32, i32, i32, i32, i32, i64, ptr, i64, ptr, ptr, ptr, i32, i32, ptr, ptr, i32, i32, i32, i64, i64, i64, i64, ptr, ptr, i32, ptr, i64, i32, i32, i32, i64, i32, i32, i32, i32, ptr, i32, i32, [41 x i8], i64, i32, ptr, i32, i32, i64, i64, i32, i32, i32, i32, i32, i64, [3 x i32], i32, i32, i32, [10 x i32], ptr, ptr, i32, i64, ptr, ptr, i32, i32, i32, i32, i64, i64, i64, i64, i64, i64, i64, i64, i64, i64, i32, i32, i64, i64, i32, i64, i64, i64, i64, i64, ptr, ptr, i32, ptr, i32, i32, i32, i32, i64, i64, ptr, ptr, i32, i32, i32, i32, i32, ptr, ptr, ptr, i32, i32, i32, i32, i32, i32, i32, i64, i32, i32, i64, i32, i32, i32, i32, i32, i32, i32, i64, ptr, ptr, i64, ptr, i32, %struct.aclInfo, i32, i64, i32, i32, i32, %struct.redisTLSContextConfig, ptr, ptr, ptr, ptr, ptr, i64, i32, ptr, i32, i32, i32, i64, i32, ptr }
%struct.connListener = type { [16 x i32], i32, ptr, i32, i32, ptr, ptr }
%struct.pause_event = type { i32, i64 }
%struct.malloc_stats = type { i64, i64, i64, i64, i64, i64, i64, i64, i64, i64, i64 }
%struct.anon = type { i64, i64, [16 x i64], i32 }
%struct.durationStats = type { i64, i64, i64 }
%struct.clientBufferLimitsConfig = type { i64, i64, i64 }
%struct.redisOpArray = type { ptr, i32, i32 }
%struct.replDataBuf = type { ptr, i64, i64, i64, i64 }
%struct.aclInfo = type { i64, i64, i64, i64 }
%struct.redisTLSContextConfig = type { ptr, ptr, ptr, ptr, ptr, ptr, ptr, ptr, ptr, ptr, ptr, ptr, i32, i32, i32, i32 }
%struct.child_info_data = type { i64, i64, i64, double, i32 }

@server = external global %struct.redisServer, align 8
@sendChildInfoGeneric.cow_updated = internal global i64 0, align 8
@sendChildInfoGeneric.cow_update_cost = internal global i64 0, align 8
@sendChildInfoGeneric.cow = internal global i64 0, align 8
@sendChildInfoGeneric.peak_cow = internal global i64 0, align 8
@sendChildInfoGeneric.update_count = internal global i64 0, align 8
@sendChildInfoGeneric.sum_cow = internal global i64 0, align 8
@getMonotonicUs = external global ptr, align 8
@.str = private unnamed_addr constant [62 x i8] c"Fork CoW for %s: current %zu MB, peak %zu MB, average %llu MB\00", align 1
@.str.1 = private unnamed_addr constant [51 x i8] c"Child failed reporting info to parent, exiting. %s\00", align 1

; Function Attrs: nounwind uwtable
define dso_local void @sendChildInfoGeneric(i32 noundef %0, i64 noundef %1, double noundef %2, ptr noundef %3) #0 {
  %5 = alloca i32, align 4
  %6 = alloca i64, align 8
  %7 = alloca double, align 8
  %8 = alloca ptr, align 8
  %9 = alloca %struct.child_info_data, align 8
  %10 = alloca i64, align 8
  %11 = alloca i32, align 4
  %12 = alloca i64, align 8
  store i32 %0, ptr %5, align 4, !tbaa !38
  store i64 %1, ptr %6, align 8, !tbaa !39
  store double %2, ptr %7, align 8, !tbaa !40
  store ptr %3, ptr %8, align 8, !tbaa !41
  %13 = load i32, ptr getelementptr inbounds ([2 x i32], ptr getelementptr inbounds nuw (%struct.redisServer, ptr @server, i32 0, i32 255), i64 0, i64 1), align 4, !tbaa !38
  %14 = icmp eq i32 %13, -1
  br i1 %14, label %15, label %16

15:                                               ; preds = %4
  br label %110

16:                                               ; preds = %4
  call void @llvm.lifetime.start.p0(i64 40, ptr %9) #6
  call void @llvm.memset.p0.i64(ptr align 8 %9, i8 0, i64 40, i1 false)
  call void @llvm.lifetime.start.p0(i64 8, ptr %10) #6
  %17 = load ptr, ptr @getMonotonicUs, align 8, !tbaa !42
  %18 = call i64 %17()
  store i64 %18, ptr %10, align 8, !tbaa !39
  %19 = load i32, ptr %5, align 4, !tbaa !38
  %20 = icmp ne i32 %19, 0
  br i1 %20, label %31, label %21

21:                                               ; preds = %16
  %22 = load i64, ptr @sendChildInfoGeneric.cow_updated, align 8, !tbaa !39
  %23 = icmp ne i64 %22, 0
  br i1 %23, label %24, label %31

24:                                               ; preds = %21
  %25 = load i64, ptr %10, align 8, !tbaa !39
  %26 = load i64, ptr @sendChildInfoGeneric.cow_updated, align 8, !tbaa !39
  %27 = sub i64 %25, %26
  %28 = load i64, ptr @sendChildInfoGeneric.cow_update_cost, align 8, !tbaa !39
  %29 = mul i64 %28, 100
  %30 = icmp ugt i64 %27, %29
  br i1 %30, label %31, label %82

31:                                               ; preds = %24, %21, %16
  %32 = call i64 @zmalloc_get_private_dirty(i64 noundef -1)
  store i64 %32, ptr @sendChildInfoGeneric.cow, align 8, !tbaa !39
  %33 = load ptr, ptr @getMonotonicUs, align 8, !tbaa !42
  %34 = call i64 %33()
  store i64 %34, ptr @sendChildInfoGeneric.cow_updated, align 8, !tbaa !39
  %35 = load i64, ptr @sendChildInfoGeneric.cow_updated, align 8, !tbaa !39
  %36 = load i64, ptr %10, align 8, !tbaa !39
  %37 = sub i64 %35, %36
  store i64 %37, ptr @sendChildInfoGeneric.cow_update_cost, align 8, !tbaa !39
  %38 = load i64, ptr @sendChildInfoGeneric.cow, align 8, !tbaa !39
  %39 = load i64, ptr @sendChildInfoGeneric.peak_cow, align 8, !tbaa !39
  %40 = icmp ugt i64 %38, %39
  br i1 %40, label %41, label %43

41:                                               ; preds = %31
  %42 = load i64, ptr @sendChildInfoGeneric.cow, align 8, !tbaa !39
  store i64 %42, ptr @sendChildInfoGeneric.peak_cow, align 8, !tbaa !39
  br label %43

43:                                               ; preds = %41, %31
  %44 = load i64, ptr @sendChildInfoGeneric.cow, align 8, !tbaa !39
  %45 = load i64, ptr @sendChildInfoGeneric.sum_cow, align 8, !tbaa !43
  %46 = add i64 %45, %44
  store i64 %46, ptr @sendChildInfoGeneric.sum_cow, align 8, !tbaa !43
  %47 = load i64, ptr @sendChildInfoGeneric.update_count, align 8, !tbaa !39
  %48 = add i64 %47, 1
  store i64 %48, ptr @sendChildInfoGeneric.update_count, align 8, !tbaa !39
  call void @llvm.lifetime.start.p0(i64 4, ptr %11) #6
  %49 = load i32, ptr %5, align 4, !tbaa !38
  %50 = icmp ne i32 %49, 0
  %51 = zext i1 %50 to i32
  store i32 %51, ptr %11, align 4, !tbaa !38
  %52 = load i64, ptr @sendChildInfoGeneric.cow, align 8, !tbaa !39
  %53 = icmp ne i64 %52, 0
  br i1 %53, label %57, label %54

54:                                               ; preds = %43
  %55 = load i32, ptr %11, align 4, !tbaa !38
  %56 = icmp ne i32 %55, 0
  br i1 %56, label %57, label %81

57:                                               ; preds = %54, %43
  br label %58

58:                                               ; preds = %57
  %59 = load i32, ptr %11, align 4, !tbaa !38
  %60 = icmp ne i32 %59, 0
  %61 = select i1 %60, i32 2, i32 1
  %62 = and i32 %61, 255
  %63 = load i32, ptr getelementptr inbounds nuw (%struct.redisServer, ptr @server, i32 0, i32 159), align 8, !tbaa !44
  %64 = icmp slt i32 %62, %63
  br i1 %64, label %65, label %66

65:                                               ; preds = %58
  br label %80

66:                                               ; preds = %58
  %67 = load i32, ptr %11, align 4, !tbaa !38
  %68 = icmp ne i32 %67, 0
  %69 = select i1 %68, i32 2, i32 1
  %70 = load ptr, ptr %8, align 8, !tbaa !41
  %71 = load i64, ptr @sendChildInfoGeneric.cow, align 8, !tbaa !39
  %72 = lshr i64 %71, 20
  %73 = load i64, ptr @sendChildInfoGeneric.peak_cow, align 8, !tbaa !39
  %74 = lshr i64 %73, 20
  %75 = load i64, ptr @sendChildInfoGeneric.sum_cow, align 8, !tbaa !43
  %76 = load i64, ptr @sendChildInfoGeneric.update_count, align 8, !tbaa !39
  %77 = udiv i64 %75, %76
  %78 = lshr i64 %77, 20
  call void (i32, ptr, ...) @_serverLog(i32 noundef %69, ptr noundef @.str, ptr noundef %70, i64 noundef %72, i64 noundef %74, i64 noundef %78)
  br label %79

79:                                               ; preds = %66
  br label %80

80:                                               ; preds = %79, %65
  br label %81

81:                                               ; preds = %80, %54
  call void @llvm.lifetime.end.p0(i64 4, ptr %11) #6
  br label %82

82:                                               ; preds = %81, %24
  %83 = load i32, ptr %5, align 4, !tbaa !38
  %84 = getelementptr inbounds nuw %struct.child_info_data, ptr %9, i32 0, i32 4
  store i32 %83, ptr %84, align 8, !tbaa !45
  %85 = load i64, ptr %6, align 8, !tbaa !39
  %86 = getelementptr inbounds nuw %struct.child_info_data, ptr %9, i32 0, i32 0
  store i64 %85, ptr %86, align 8, !tbaa !47
  %87 = load i64, ptr @sendChildInfoGeneric.cow, align 8, !tbaa !39
  %88 = getelementptr inbounds nuw %struct.child_info_data, ptr %9, i32 0, i32 1
  store i64 %87, ptr %88, align 8, !tbaa !48
  %89 = load i64, ptr @sendChildInfoGeneric.cow_updated, align 8, !tbaa !39
  %90 = getelementptr inbounds nuw %struct.child_info_data, ptr %9, i32 0, i32 2
  store i64 %89, ptr %90, align 8, !tbaa !49
  %91 = load double, ptr %7, align 8, !tbaa !40
  %92 = getelementptr inbounds nuw %struct.child_info_data, ptr %9, i32 0, i32 3
  store double %91, ptr %92, align 8, !tbaa !50
  call void @llvm.lifetime.start.p0(i64 8, ptr %12) #6
  store i64 40, ptr %12, align 8, !tbaa !39
  %93 = load i32, ptr getelementptr inbounds ([2 x i32], ptr getelementptr inbounds nuw (%struct.redisServer, ptr @server, i32 0, i32 255), i64 0, i64 1), align 4, !tbaa !38
  %94 = load i64, ptr %12, align 8, !tbaa !39
  %95 = call i64 @write(i32 noundef %93, ptr noundef %9, i64 noundef %94)
  %96 = load i64, ptr %12, align 8, !tbaa !39
  %97 = icmp ne i64 %95, %96
  br i1 %97, label %98, label %109

98:                                               ; preds = %82
  br label %99

99:                                               ; preds = %98
  %100 = load i32, ptr getelementptr inbounds nuw (%struct.redisServer, ptr @server, i32 0, i32 159), align 8, !tbaa !44
  %101 = icmp slt i32 3, %100
  br i1 %101, label %102, label %103

102:                                              ; preds = %99
  br label %108

103:                                              ; preds = %99
  %104 = call ptr @__errno_location() #7
  %105 = load i32, ptr %104, align 4, !tbaa !38
  %106 = call ptr @strerror(i32 noundef %105) #6
  call void (i32, ptr, ...) @_serverLog(i32 noundef 3, ptr noundef @.str.1, ptr noundef %106)
  br label %107

107:                                              ; preds = %103
  br label %108

108:                                              ; preds = %107, %102
  call void @exitFromChild(i32 noundef 1)
  br label %109

109:                                              ; preds = %108, %82
  call void @llvm.lifetime.end.p0(i64 8, ptr %12) #6
  call void @llvm.lifetime.end.p0(i64 8, ptr %10) #6
  call void @llvm.lifetime.end.p0(i64 40, ptr %9) #6
  br label %110

110:                                              ; preds = %109, %15
  ret void
}