; Function Attrs: nounwind uwtable
define dso_local void @sendChildInfoGeneric(i32 noundef %0, i64 noundef %1, double noundef %2, ptr noundef %3) local_unnamed_addr #0 {
  %5 = alloca %struct.child_info_data, align 8
  %6 = load i32, ptr getelementptr inbounds nuw (i8, ptr @server, i64 6896), align 8, !tbaa !5
  %7 = icmp eq i32 %6, -1
  br i1 %7, label %64, label %8

8:                                                ; preds = %4
  call void @llvm.lifetime.start.p0(i64 40, ptr nonnull %5) #8
  %9 = getelementptr inbounds nuw i8, ptr %5, i64 32
  store i64 0, ptr %9, align 8
  %10 = load ptr, ptr @getMonotonicUs, align 8, !tbaa !39
  %11 = tail call i64 %10() #8
  %12 = icmp eq i32 %0, 0
  %13 = load i64, ptr @sendChildInfoGeneric.cow_updated, align 8
  %14 = icmp ne i64 %13, 0
  %or.cond = select i1 %12, i1 %14, i1 false
  br i1 %or.cond, label %15, label %20

15:                                               ; preds = %8
  %16 = sub i64 %11, %13
  %17 = load i64, ptr @sendChildInfoGeneric.cow_update_cost, align 8, !tbaa !40
  %18 = mul i64 %17, 100
  %19 = icmp ugt i64 %16, %18
  br i1 %19, label %20, label %46

20:                                               ; preds = %15, %8
  %21 = tail call i64 @zmalloc_get_private_dirty(i64 noundef -1) #8
  store i64 %21, ptr @sendChildInfoGeneric.cow, align 8, !tbaa !40
  %22 = load ptr, ptr @getMonotonicUs, align 8, !tbaa !39
  %23 = tail call i64 %22() #8
  store i64 %23, ptr @sendChildInfoGeneric.cow_updated, align 8, !tbaa !40
  %24 = sub i64 %23, %11
  store i64 %24, ptr @sendChildInfoGeneric.cow_update_cost, align 8, !tbaa !40
  %25 = load i64, ptr @sendChildInfoGeneric.cow, align 8, !tbaa !40
  %26 = load i64, ptr @sendChildInfoGeneric.peak_cow, align 8, !tbaa !40
  %27 = icmp ugt i64 %25, %26
  br i1 %27, label %28, label %29

28:                                               ; preds = %20
  store i64 %25, ptr @sendChildInfoGeneric.peak_cow, align 8, !tbaa !40
  br label %29

29:                                               ; preds = %28, %20
  %30 = phi i64 [ %25, %28 ], [ %26, %20 ]
  %31 = load i64, ptr @sendChildInfoGeneric.sum_cow, align 8, !tbaa !41
  %32 = add i64 %31, %25
  store i64 %32, ptr @sendChildInfoGeneric.sum_cow, align 8, !tbaa !41
  %33 = load i64, ptr @sendChildInfoGeneric.update_count, align 8, !tbaa !40
  %34 = add i64 %33, 1
  store i64 %34, ptr @sendChildInfoGeneric.update_count, align 8, !tbaa !40
  %35 = icmp ne i32 %0, 0
  %36 = icmp ne i64 %25, 0
  %or.cond3 = or i1 %35, %36
  br i1 %or.cond3, label %37, label %46

37:                                               ; preds = %29
  %38 = select i1 %35, i32 2, i32 1
  %39 = load i32, ptr getelementptr inbounds nuw (i8, ptr @server, i64 6288), align 8, !tbaa !42
  %40 = icmp slt i32 %38, %39
  br i1 %40, label %46, label %41

41:                                               ; preds = %37
  %42 = lshr i64 %25, 20
  %43 = lshr i64 %30, 20
  %44 = udiv i64 %32, %34
  %45 = lshr i64 %44, 20
  tail call void (i32, ptr, ...) @_serverLog(i32 noundef %38, ptr noundef nonnull @.str, ptr noundef %3, i64 noundef %42, i64 noundef %43, i64 noundef %45) #8
  %.pre = load i64, ptr @sendChildInfoGeneric.cow_updated, align 8, !tbaa !40
  br label %46

46:                                               ; preds = %29, %37, %41, %15
  %47 = phi i64 [ %23, %29 ], [ %23, %37 ], [ %.pre, %41 ], [ %13, %15 ]
  %48 = getelementptr inbounds nuw i8, ptr %5, i64 32
  store i32 %0, ptr %48, align 8, !tbaa !43
  store i64 %1, ptr %5, align 8, !tbaa !45
  %49 = load i64, ptr @sendChildInfoGeneric.cow, align 8, !tbaa !40
  %50 = getelementptr inbounds nuw i8, ptr %5, i64 8
  store i64 %49, ptr %50, align 8, !tbaa !46
  %51 = getelementptr inbounds nuw i8, ptr %5, i64 16
  store i64 %47, ptr %51, align 8, !tbaa !47
  %52 = getelementptr inbounds nuw i8, ptr %5, i64 24
  store double %2, ptr %52, align 8, !tbaa !48
  %53 = load i32, ptr getelementptr inbounds nuw (i8, ptr @server, i64 6896), align 8, !tbaa !5
  %54 = call i64 @write(i32 noundef %53, ptr noundef nonnull %5, i64 noundef 40) #8
  %.not = icmp eq i64 %54, 40
  br i1 %.not, label %63, label %55

55:                                               ; preds = %46
  %56 = load i32, ptr getelementptr inbounds nuw (i8, ptr @server, i64 6288), align 8, !tbaa !42
  %57 = icmp sgt i32 %56, 3
  br i1 %57, label %62, label %58

58:                                               ; preds = %55
  %59 = tail call ptr @__errno_location() #9
  %60 = load i32, ptr %59, align 4, !tbaa !5
  %61 = tail call ptr @strerror(i32 noundef %60) #8
  tail call void (i32, ptr, ...) @_serverLog(i32 noundef 3, ptr noundef nonnull @.str.1, ptr noundef %61) #8
  br label %62

62:                                               ; preds = %55, %58
  tail call void @exitFromChild(i32 noundef 1) #8
  br label %63

63:                                               ; preds = %62, %46
  call void @llvm.lifetime.end.p0(i64 40, ptr nonnull %5) #8
  br label %64

64:                                               ; preds = %4, %63
  ret void
}